target datalayout = "e-m:e-p270:32:32-p271:32:32-p272:64:64-i64:64-i128:128-f80:128-n8:16:32:64-S128"
target triple = "x86_64-pc-linux-gnu"

%"struct.Luau::CodeGen::X64::RegisterX64" = type { i8 }
%"class.Luau::CodeGen::X64::AssemblyBuilderX64" = type <{ %"class.std::vector", %"class.std::vector", %"class.std::__cxx11::basic_string", i8, [3 x i8], i32, i32, [4 x i8], %"class.std::vector.3", %"class.std::vector.8", %"class.Luau::DenseHashMap", %"class.Luau::DenseHashMap.13", i8, [7 x i8], i64, ptr, ptr, i32, [4 x i8] }>
%"class.std::vector" = type { %"struct.std::_Vector_base" }
%"struct.std::_Vector_base" = type { %"struct.std::_Vector_base<unsigned char, std::allocator<unsigned char>>::_Vector_impl" }
%"struct.std::_Vector_base<unsigned char, std::allocator<unsigned char>>::_Vector_impl" = type { %"struct.std::_Vector_base<unsigned char, std::allocator<unsigned char>>::_Vector_impl_data" }
%"struct.std::_Vector_base<unsigned char, std::allocator<unsigned char>>::_Vector_impl_data" = type { ptr, ptr, ptr }
%"class.std::__cxx11::basic_string" = type { %"struct.std::__cxx11::basic_string<char>::_Alloc_hider", i64, %union.anon }
%"struct.std::__cxx11::basic_string<char>::_Alloc_hider" = type { ptr }
%union.anon = type { i64, [8 x i8] }
%"class.std::vector.3" = type { %"struct.std::_Vector_base.4" }
%"struct.std::_Vector_base.4" = type { %"struct.std::_Vector_base<Luau::CodeGen::Label, std::allocator<Luau::CodeGen::Label>>::_Vector_impl" }
%"struct.std::_Vector_base<Luau::CodeGen::Label, std::allocator<Luau::CodeGen::Label>>::_Vector_impl" = type { %"struct.std::_Vector_base<Luau::CodeGen::Label, std::allocator<Luau::CodeGen::Label>>::_Vector_impl_data" }
%"struct.std::_Vector_base<Luau::CodeGen::Label, std::allocator<Luau::CodeGen::Label>>::_Vector_impl_data" = type { ptr, ptr, ptr }
%"class.std::vector.8" = type { %"struct.std::_Vector_base.9" }
%"struct.std::_Vector_base.9" = type { %"struct.std::_Vector_base<unsigned int, std::allocator<unsigned int>>::_Vector_impl" }
%"struct.std::_Vector_base<unsigned int, std::allocator<unsigned int>>::_Vector_impl" = type { %"struct.std::_Vector_base<unsigned int, std::allocator<unsigned int>>::_Vector_impl_data" }
%"struct.std::_Vector_base<unsigned int, std::allocator<unsigned int>>::_Vector_impl_data" = type { ptr, ptr, ptr }
%"class.Luau::DenseHashMap" = type { %"class.Luau::detail::DenseHashTable" }
%"class.Luau::detail::DenseHashTable" = type <{ ptr, i64, i64, i32, [4 x i8] }>
%"class.Luau::DenseHashMap.13" = type { %"class.Luau::detail::DenseHashTable.14" }
%"class.Luau::detail::DenseHashTable.14" = type <{ ptr, i64, i64, i64, [8 x i8] }>
%"struct.Luau::CodeGen::X64::OperandX64" = type { i8, %"struct.Luau::CodeGen::X64::RegisterX64", %"struct.Luau::CodeGen::X64::RegisterX64", i8, i32 }

; Function Attrs: mustprogress uwtable
define dso_local void @_ZN4Luau7CodeGen3X6418AssemblyBuilderX646commitEv(ptr noundef nonnull align 8 dereferenceable(252) %0) #0 align 2 {
  %2 = alloca ptr, align 8
  store ptr %0, ptr %2, align 8, !tbaa !4
  %3 = load ptr, ptr %2, align 8
  %4 = getelementptr inbounds nuw %"class.Luau::CodeGen::X64::AssemblyBuilderX64", ptr %3, i32 0, i32 17
  %5 = load i32, ptr %4, align 8, !tbaa !54
  %6 = add i32 %5, 1
  store i32 %6, ptr %4, align 8, !tbaa !54
  %7 = getelementptr inbounds nuw %"class.Luau::CodeGen::X64::AssemblyBuilderX64", ptr %3, i32 0, i32 16
  %8 = load ptr, ptr %7, align 8, !tbaa !53
  %9 = getelementptr inbounds nuw %"class.Luau::CodeGen::X64::AssemblyBuilderX64", ptr %3, i32 0, i32 15
  %10 = load ptr, ptr %9, align 8, !tbaa !52
  %11 = ptrtoint ptr %8 to i64
  %12 = ptrtoint ptr %10 to i64
  %13 = sub i64 %11, %12
  %14 = trunc i64 %13 to i32
  %15 = icmp ult i32 %14, 16
  br i1 %15, label %16, label %17

16:                                               ; preds = %1
  call void @_ZN4Luau7CodeGen3X6418AssemblyBuilderX646extendEv(ptr noundef nonnull align 8 dereferenceable(252) %3)
  br label %17

17:                                               ; preds = %16, %1
  ret void
}

; Function Attrs: mustprogress uwtable
define dso_local void @_ZN4Luau7CodeGen3X6418AssemblyBuilderX649placeImm8Ei(ptr noundef nonnull align 8 dereferenceable(252) %0, i32 noundef %1) #0 align 2 {
  %3 = alloca ptr, align 8
  %4 = alloca i32, align 4
  %5 = alloca i8, align 1
  store ptr %0, ptr %3, align 8, !tbaa !4
  store i32 %1, ptr %4, align 4, !tbaa !48
  %6 = load ptr, ptr %3, align 8
  call void @llvm.lifetime.start.p0(i64 1, ptr %5) #17
  %7 = load i32, ptr %4, align 4, !tbaa !48
  %8 = trunc i32 %7 to i8
  store i8 %8, ptr %5, align 1, !tbaa !79
  %9 = load i8, ptr %5, align 1, !tbaa !79
  call void @_ZN4Luau7CodeGen3X6418AssemblyBuilderX645placeEh(ptr noundef nonnull align 8 dereferenceable(252) %6, i8 noundef zeroext %9)
  call void @llvm.lifetime.end.p0(i64 1, ptr %5) #17
  ret void
}

; Function Attrs: mustprogress nounwind uwtable
define dso_local void @_ZN4Luau7CodeGen3X6418AssemblyBuilderX645placeEh(ptr noundef nonnull align 8 dereferenceable(252) %0, i8 noundef zeroext %1) #1 align 2 {
  %3 = alloca ptr, align 8
  %4 = alloca i8, align 1
  store ptr %0, ptr %3, align 8, !tbaa !4
  store i8 %1, ptr %4, align 1, !tbaa !79
  %5 = load ptr, ptr %3, align 8
  %6 = load i8, ptr %4, align 1, !tbaa !79
  %7 = getelementptr inbounds nuw %"class.Luau::CodeGen::X64::AssemblyBuilderX64", ptr %5, i32 0, i32 15
  %8 = load ptr, ptr %7, align 8, !tbaa !52
  %9 = getelementptr inbounds nuw i8, ptr %8, i32 1
  store ptr %9, ptr %7, align 8, !tbaa !52
  store i8 %6, ptr %8, align 1, !tbaa !79
  ret void
}

; Function Attrs: mustprogress uwtable
define dso_local void @_ZN4Luau7CodeGen3X6418AssemblyBuilderX648placeRexENS1_11RegisterX64E(ptr noundef nonnull align 8 dereferenceable(252) %0, i8 %1) #0 align 2 {
  %3 = alloca %"struct.Luau::CodeGen::X64::RegisterX64", align 1
  %4 = alloca ptr, align 8
  %5 = alloca i8, align 1
  %6 = getelementptr inbounds nuw %"struct.Luau::CodeGen::X64::RegisterX64", ptr %3, i32 0, i32 0
  store i8 %1, ptr %6, align 1
  store ptr %0, ptr %4, align 8, !tbaa !4
  %7 = load ptr, ptr %4, align 8
  call void @llvm.lifetime.start.p0(i64 1, ptr %5) #17
  %8 = load i8, ptr %3, align 1
  %9 = and i8 %8, 7
  %10 = icmp eq i8 %9, 4
  br i1 %10, label %22, label %11

11:                                               ; preds = %2
  %12 = load i8, ptr %3, align 1
  %13 = and i8 %12, 7
  %14 = icmp eq i8 %13, 1
  br i1 %14, label %15, label %20

15:                                               ; preds = %11
  %16 = load i8, ptr %3, align 1
  %17 = lshr i8 %16, 3
  %18 = zext i8 %17 to i32
  %19 = icmp sge i32 %18, 4
  br label %20

20:                                               ; preds = %15, %11
  %21 = phi i1 [ false, %11 ], [ %19, %15 ]
  br label %22

22:                                               ; preds = %20, %2
  %23 = phi i1 [ true, %2 ], [ %21, %20 ]
  %24 = select i1 %23, i32 8, i32 0
  %25 = load i8, ptr %3, align 1
  %26 = lshr i8 %25, 3
  %27 = zext i8 %26 to i32
  %28 = and i32 %27, 8
  %29 = ashr i32 %28, 3
  %30 = or i32 %24, %29
  %31 = trunc i32 %30 to i8
  store i8 %31, ptr %5, align 1, !tbaa !79
  %32 = load i8, ptr %5, align 1, !tbaa !79
  %33 = zext i8 %32 to i32
  %34 = icmp ne i32 %33, 0
  br i1 %34, label %35, label %40

35:                                               ; preds = %22
  %36 = load i8, ptr %5, align 1, !tbaa !79
  %37 = zext i8 %36 to i32
  %38 = or i32 %37, 64
  %39 = trunc i32 %38 to i8
  call void @_ZN4Luau7CodeGen3X6418AssemblyBuilderX645placeEh(ptr noundef nonnull align 8 dereferenceable(252) %7, i8 noundef zeroext %39)
  br label %40

40:                                               ; preds = %35, %22
  call void @llvm.lifetime.end.p0(i64 1, ptr %5) #17
  ret void
}

; Function Attrs: mustprogress uwtable
define dso_local void @_ZN4Luau7CodeGen3X6418AssemblyBuilderX6410placeShiftEPKcNS1_10OperandX64ES5_h(ptr noundef nonnull align 8 dereferenceable(252) %0, ptr noundef %1, i64 %2, i64 %3, i8 noundef zeroext %4) #0 align 2 {
  %6 = alloca %"struct.Luau::CodeGen::X64::OperandX64", align 4
  %7 = alloca %"struct.Luau::CodeGen::X64::OperandX64", align 4
  %8 = alloca ptr, align 8
  %9 = alloca ptr, align 8
  %10 = alloca i8, align 1
  %11 = alloca %"struct.Luau::CodeGen::X64::OperandX64", align 4
  %12 = alloca %"struct.Luau::CodeGen::X64::OperandX64", align 4
  %13 = alloca i8, align 1
  %14 = alloca %"struct.Luau::CodeGen::X64::RegisterX64", align 1
  %15 = alloca %"struct.Luau::CodeGen::X64::OperandX64", align 4
  %16 = alloca %"struct.Luau::CodeGen::X64::OperandX64", align 4
  %17 = alloca %"struct.Luau::CodeGen::X64::OperandX64", align 4
  store i64 %2, ptr %6, align 4
  store i64 %3, ptr %7, align 4
  store ptr %0, ptr %8, align 8, !tbaa !4
  store ptr %1, ptr %9, align 8, !tbaa !80
  store i8 %4, ptr %10, align 1, !tbaa !79
  %18 = load ptr, ptr %8, align 8
  %19 = getelementptr inbounds nuw %"class.Luau::CodeGen::X64::AssemblyBuilderX64", ptr %18, i32 0, i32 3
  %20 = load i8, ptr %19, align 8, !tbaa !15, !range !13, !noundef !14
  %21 = trunc i8 %20 to i1
  br i1 %21, label %22, label %26

22:                                               ; preds = %5
  %23 = load ptr, ptr %9, align 8, !tbaa !80
  call void @llvm.memcpy.p0.p0.i64(ptr align 4 %11, ptr align 4 %6, i64 8, i1 false), !tbaa.struct !76
  call void @llvm.memcpy.p0.p0.i64(ptr align 4 %12, ptr align 4 %7, i64 8, i1 false), !tbaa.struct !76
  %24 = load i64, ptr %11, align 4
  %25 = load i64, ptr %12, align 4
  call void @_ZN4Luau7CodeGen3X6418AssemblyBuilderX643logEPKcNS1_10OperandX64ES5_(ptr noundef nonnull align 8 dereferenceable(252) %18, ptr noundef %23, i64 %24, i64 %25)
  br label %26

26:                                               ; preds = %22, %5
  call void @llvm.lifetime.start.p0(i64 1, ptr %13) #17
  %27 = getelementptr inbounds nuw %"struct.Luau::CodeGen::X64::OperandX64", ptr %6, i32 0, i32 2
  %28 = load i8, ptr %27, align 2
  %29 = and i8 %28, 7
  store i8 %29, ptr %13, align 1, !tbaa !85
  %30 = getelementptr inbounds nuw %"struct.Luau::CodeGen::X64::OperandX64", ptr %6, i32 0, i32 2
  call void @llvm.memcpy.p0.p0.i64(ptr align 1 %14, ptr align 2 %30, i64 1, i1 false), !tbaa.struct !86
  %31 = getelementptr inbounds nuw %"struct.Luau::CodeGen::X64::RegisterX64", ptr %14, i32 0, i32 0
  %32 = load i8, ptr %31, align 1
  call void @_ZN4Luau7CodeGen3X6418AssemblyBuilderX648placeRexENS1_11RegisterX64E(ptr noundef nonnull align 8 dereferenceable(252) %18, i8 %32)
  %33 = getelementptr inbounds nuw %"struct.Luau::CodeGen::X64::OperandX64", ptr %7, i32 0, i32 0
  %34 = load i8, ptr %33, align 4, !tbaa !81
  %35 = icmp eq i8 %34, 2
  br i1 %35, label %36, label %47

36:                                               ; preds = %26
  %37 = getelementptr inbounds nuw %"struct.Luau::CodeGen::X64::OperandX64", ptr %7, i32 0, i32 4
  %38 = load i32, ptr %37, align 4, !tbaa !87
  %39 = icmp eq i32 %38, 1
  br i1 %39, label %40, label %47

40:                                               ; preds = %36
  %41 = load i8, ptr %13, align 1, !tbaa !85
  %42 = icmp eq i8 %41, 1
  %43 = select i1 %42, i32 208, i32 209
  %44 = trunc i32 %43 to i8
  call void @_ZN4Luau7CodeGen3X6418AssemblyBuilderX645placeEh(ptr noundef nonnull align 8 dereferenceable(252) %18, i8 noundef zeroext %44)
  call void @llvm.memcpy.p0.p0.i64(ptr align 4 %15, ptr align 4 %6, i64 8, i1 false), !tbaa.struct !76
  %45 = load i8, ptr %10, align 1, !tbaa !79
  %46 = load i64, ptr %15, align 4
  call void @_ZN4Luau7CodeGen3X6418AssemblyBuilderX6414placeModRegMemENS1_10OperandX64Ehi(ptr noundef nonnull align 8 dereferenceable(252) %18, i64 %46, i8 noundef zeroext %45, i32 noundef 0)
  br label %68

47:                                               ; preds = %36, %26
  %48 = getelementptr inbounds nuw %"struct.Luau::CodeGen::X64::OperandX64", ptr %7, i32 0, i32 0
  %49 = load i8, ptr %48, align 4, !tbaa !81
  %50 = icmp eq i8 %49, 2
  br i1 %50, label %51, label %60

51:                                               ; preds = %47
  %52 = load i8, ptr %13, align 1, !tbaa !85
  %53 = icmp eq i8 %52, 1
  %54 = select i1 %53, i32 192, i32 193
  %55 = trunc i32 %54 to i8
  call void @_ZN4Luau7CodeGen3X6418AssemblyBuilderX645placeEh(ptr noundef nonnull align 8 dereferenceable(252) %18, i8 noundef zeroext %55)
  call void @llvm.memcpy.p0.p0.i64(ptr align 4 %16, ptr align 4 %6, i64 8, i1 false), !tbaa.struct !76
  %56 = load i8, ptr %10, align 1, !tbaa !79
  %57 = load i64, ptr %16, align 4
  call void @_ZN4Luau7CodeGen3X6418AssemblyBuilderX6414placeModRegMemENS1_10OperandX64Ehi(ptr noundef nonnull align 8 dereferenceable(252) %18, i64 %57, i8 noundef zeroext %56, i32 noundef 1)
  %58 = getelementptr inbounds nuw %"struct.Luau::CodeGen::X64::OperandX64", ptr %7, i32 0, i32 4
  %59 = load i32, ptr %58, align 4, !tbaa !87
  call void @_ZN4Luau7CodeGen3X6418AssemblyBuilderX649placeImm8Ei(ptr noundef nonnull align 8 dereferenceable(252) %18, i32 noundef %59)
  br label %67

60:                                               ; preds = %47
  %61 = load i8, ptr %13, align 1, !tbaa !85
  %62 = icmp eq i8 %61, 1
  %63 = select i1 %62, i32 210, i32 211
  %64 = trunc i32 %63 to i8
  call void @_ZN4Luau7CodeGen3X6418AssemblyBuilderX645placeEh(ptr noundef nonnull align 8 dereferenceable(252) %18, i8 noundef zeroext %64)
  call void @llvm.memcpy.p0.p0.i64(ptr align 4 %17, ptr align 4 %6, i64 8, i1 false), !tbaa.struct !76
  %65 = load i8, ptr %10, align 1, !tbaa !79
  %66 = load i64, ptr %17, align 4
  call void @_ZN4Luau7CodeGen3X6418AssemblyBuilderX6414placeModRegMemENS1_10OperandX64Ehi(ptr noundef nonnull align 8 dereferenceable(252) %18, i64 %66, i8 noundef zeroext %65, i32 noundef 0)
  br label %67

67:                                               ; preds = %60, %51
  br label %68

68:                                               ; preds = %67, %40
  call void @_ZN4Luau7CodeGen3X6418AssemblyBuilderX646commitEv(ptr noundef nonnull align 8 dereferenceable(252) %18)
  call void @llvm.lifetime.end.p0(i64 1, ptr %13) #17
  ret void
}