; Function Attrs: mustprogress uwtable
define dso_local void @_ZN4Luau7CodeGen3X6418AssemblyBuilderX6410placeShiftEPKcNS1_10OperandX64ES5_h(ptr noundef nonnull align 8 dereferenceable(252) %0, ptr noundef %1, i64 %2, i64 %3, i8 noundef zeroext %4) local_unnamed_addr #0 align 2 {
  %.sroa.5.0.extract.shift = lshr i64 %2, 16
  %.sroa.5.0.extract.trunc = trunc i64 %.sroa.5.0.extract.shift to i8
  %.sroa.416.0.extract.shift = lshr i64 %3, 32
  %6 = getelementptr inbounds nuw i8, ptr %0, i64 80
  %7 = load i8, ptr %6, align 8, !tbaa !14, !range !61, !noundef !62
  %8 = trunc nuw i8 %7 to i1
  br i1 %8, label %9, label %10

9:                                                ; preds = %5
  tail call void @_ZN4Luau7CodeGen3X6418AssemblyBuilderX643logEPKcNS1_10OperandX64ES5_(ptr noundef nonnull align 8 dereferenceable(252) %0, ptr noundef %1, i64 %2, i64 %3)
  br label %10

10:                                               ; preds = %9, %5
  %11 = and i8 %.sroa.5.0.extract.trunc, 7
  %12 = icmp eq i8 %11, 4
  %13 = icmp eq i8 %11, 1
  %14 = icmp ugt i8 %.sroa.5.0.extract.trunc, 31
  %15 = and i1 %14, %13
  %16 = or i1 %12, %15
  %17 = select i1 %16, i8 8, i8 0
  %18 = lshr i8 %.sroa.5.0.extract.trunc, 6
  %19 = and i8 %18, 1
  %20 = or disjoint i8 %17, %19
  %.not.i = icmp eq i8 %20, 0
  br i1 %.not.i, label %_ZN4Luau7CodeGen3X6418AssemblyBuilderX648placeRexENS1_11RegisterX64E.exit, label %21

21:                                               ; preds = %10
  %22 = or disjoint i8 %20, 64
  %23 = getelementptr inbounds nuw i8, ptr %0, i64 232
  %24 = load ptr, ptr %23, align 8, !tbaa !51
  %25 = getelementptr inbounds nuw i8, ptr %24, i64 1
  store ptr %25, ptr %23, align 8, !tbaa !51
  store i8 %22, ptr %24, align 1, !tbaa !13
  br label %_ZN4Luau7CodeGen3X6418AssemblyBuilderX648placeRexENS1_11RegisterX64E.exit

_ZN4Luau7CodeGen3X6418AssemblyBuilderX648placeRexENS1_11RegisterX64E.exit: ; preds = %10, %21
  %26 = and i64 %3, 255
  %27 = icmp eq i64 %26, 2
  %28 = icmp eq i64 %.sroa.416.0.extract.shift, 1
  %or.cond = and i1 %27, %28
  br i1 %or.cond, label %29, label %34

29:                                               ; preds = %_ZN4Luau7CodeGen3X6418AssemblyBuilderX648placeRexENS1_11RegisterX64E.exit
  %30 = select i1 %13, i8 -48, i8 -47
  %31 = getelementptr inbounds nuw i8, ptr %0, i64 232
  %32 = load ptr, ptr %31, align 8, !tbaa !51
  %33 = getelementptr inbounds nuw i8, ptr %32, i64 1
  store ptr %33, ptr %31, align 8, !tbaa !51
  store i8 %30, ptr %32, align 1, !tbaa !13
  tail call void @_ZN4Luau7CodeGen3X6418AssemblyBuilderX6414placeModRegMemENS1_10OperandX64Ehi(ptr noundef nonnull align 8 dereferenceable(252) %0, i64 %2, i8 noundef zeroext %4, i32 noundef 0)
  br label %45

34:                                               ; preds = %_ZN4Luau7CodeGen3X6418AssemblyBuilderX648placeRexENS1_11RegisterX64E.exit
  %35 = getelementptr inbounds nuw i8, ptr %0, i64 232
  %36 = load ptr, ptr %35, align 8, !tbaa !51
  %37 = getelementptr inbounds nuw i8, ptr %36, i64 1
  store ptr %37, ptr %35, align 8, !tbaa !51
  br i1 %27, label %38, label %43

38:                                               ; preds = %34
  %39 = select i1 %13, i8 -64, i8 -63
  store i8 %39, ptr %36, align 1, !tbaa !13
  tail call void @_ZN4Luau7CodeGen3X6418AssemblyBuilderX6414placeModRegMemENS1_10OperandX64Ehi(ptr noundef nonnull align 8 dereferenceable(252) %0, i64 %2, i8 noundef zeroext %4, i32 noundef 1)
  %40 = trunc i64 %.sroa.416.0.extract.shift to i8
  %41 = load ptr, ptr %35, align 8, !tbaa !51
  %42 = getelementptr inbounds nuw i8, ptr %41, i64 1
  store ptr %42, ptr %35, align 8, !tbaa !51
  store i8 %40, ptr %41, align 1, !tbaa !13
  br label %45

43:                                               ; preds = %34
  %44 = select i1 %13, i8 -46, i8 -45
  store i8 %44, ptr %36, align 1, !tbaa !13
  tail call void @_ZN4Luau7CodeGen3X6418AssemblyBuilderX6414placeModRegMemENS1_10OperandX64Ehi(ptr noundef nonnull align 8 dereferenceable(252) %0, i64 %2, i8 noundef zeroext %4, i32 noundef 0)
  br label %45

45:                                               ; preds = %38, %43, %29
  %46 = getelementptr inbounds nuw i8, ptr %0, i64 248
  %47 = load i32, ptr %46, align 8, !tbaa !63
  %48 = add i32 %47, 1
  store i32 %48, ptr %46, align 8, !tbaa !63
  %49 = getelementptr inbounds nuw i8, ptr %0, i64 240
  %50 = load ptr, ptr %49, align 8, !tbaa !52
  %51 = getelementptr inbounds nuw i8, ptr %0, i64 232
  %52 = load ptr, ptr %51, align 8, !tbaa !51
  %53 = ptrtoint ptr %50 to i64
  %54 = ptrtoint ptr %52 to i64
  %55 = sub i64 %53, %54
  %56 = and i64 %55, 4294967280
  %57 = icmp eq i64 %56, 0
  br i1 %57, label %58, label %_ZN4Luau7CodeGen3X6418AssemblyBuilderX646commitEv.exit

58:                                               ; preds = %45
  tail call void @_ZN4Luau7CodeGen3X6418AssemblyBuilderX646extendEv(ptr noundef nonnull align 8 dereferenceable(252) %0)
  br label %_ZN4Luau7CodeGen3X6418AssemblyBuilderX646commitEv.exit

_ZN4Luau7CodeGen3X6418AssemblyBuilderX646commitEv.exit: ; preds = %45, %58
  ret void
}